(dp1
S'Avocado'
p2
(lp3
(lp4
S'16/07/2018 19:37'
p5
aI51
aS'wet'
p6
aa(lp7
S'16/07/2018 19:42'
p8
aI51
aS'wet'
p9
aasS'Pilea'
p10
(lp11
(lp12
S'16/07/2018 19:37'
p13
aI30
aS'dry'
p14
aa(lp15
S'16/07/2018 19:42'
p16
aI31
aS'dry'
p17
aas.